; Function Attrs: mustprogress nounwind uwtable
define void @_ZN5folly18LogStreamProcessorC2EPNS_17XlogFileScopeInfoENS_8LogLevelENS_5RangeIPKcEEjS7_NS0_12InternalTypeEONSt7__cxx1112basic_stringIcSt11char_traitsIcESaIcEEE(ptr noundef nonnull align 8 dereferenceable(464) initializes((0, 12), (16, 36), (40, 56)) %0, ptr noundef readonly captures(none) %1, i32 noundef %2, ptr %3, ptr %4, i32 noundef %5, ptr noundef readonly byval(%"class.folly::Range") align 8 captures(none) %6, i32 %7, ptr noundef nonnull align 8 dereferenceable(32) %8) unnamed_addr #0 align 2 personality ptr @__gxx_personality_v0 {
  %10 = getelementptr i8, ptr %1, i64 8
  %.val = load ptr, ptr %10, align 8, !tbaa !40
  store ptr %.val, ptr %0, align 8, !tbaa !7
  %11 = getelementptr inbounds nuw i8, ptr %0, i64 8
  store i32 %2, ptr %11, align 8, !tbaa !27
  %12 = getelementptr inbounds nuw i8, ptr %0, i64 16
  store ptr %3, ptr %12, align 8, !tbaa !28
  %.sroa.2.0..sroa_idx = getelementptr inbounds nuw i8, ptr %0, i64 24
  store ptr %4, ptr %.sroa.2.0..sroa_idx, align 8, !tbaa !28
  %13 = getelementptr inbounds nuw i8, ptr %0, i64 32
  store i32 %5, ptr %13, align 8, !tbaa !29
  %14 = getelementptr inbounds nuw i8, ptr %0, i64 40
  call void @llvm.memcpy.p0.p0.i64(ptr noundef nonnull align 8 dereferenceable(16) %14, ptr noundef nonnull align 8 dereferenceable(16) %6, i64 16, i1 false), !tbaa.struct !34
  %15 = getelementptr inbounds nuw i8, ptr %0, i64 56
  %16 = getelementptr inbounds nuw i8, ptr %0, i64 72
  store ptr %16, ptr %15, align 8, !tbaa !30
  %17 = load ptr, ptr %8, align 8, !tbaa !32
  %18 = getelementptr inbounds nuw i8, ptr %8, i64 16
  %19 = icmp eq ptr %17, %18
  br i1 %19, label %20, label %_ZNKSt7__cxx1112basic_stringIcSt11char_traitsIcESaIcEE11_M_is_localEv.exit.i

20:                                               ; preds = %9
  %21 = getelementptr inbounds nuw i8, ptr %8, i64 8
  %22 = load i64, ptr %21, align 8, !tbaa !31
  %23 = icmp ult i64 %22, 16
  tail call void @llvm.assume(i1 %23)
  %24 = add nuw nsw i64 %22, 1
  tail call void @llvm.memcpy.p0.p0.i64(ptr noundef nonnull align 8 dereferenceable(1) %16, ptr noundef nonnull align 8 dereferenceable(1) %18, i64 %24, i1 false)
  br label %_ZNSt7__cxx1112basic_stringIcSt11char_traitsIcESaIcEEC2EOS4_.exit

_ZNKSt7__cxx1112basic_stringIcSt11char_traitsIcESaIcEE11_M_is_localEv.exit.i: ; preds = %9
  store ptr %17, ptr %15, align 8, !tbaa !32
  %25 = load i64, ptr %18, align 8, !tbaa !33
  store i64 %25, ptr %16, align 8, !tbaa !33
  br label %_ZNSt7__cxx1112basic_stringIcSt11char_traitsIcESaIcEEC2EOS4_.exit

_ZNSt7__cxx1112basic_stringIcSt11char_traitsIcESaIcEEC2EOS4_.exit: ; preds = %20, %_ZNKSt7__cxx1112basic_stringIcSt11char_traitsIcESaIcEE11_M_is_localEv.exit.i
  %26 = getelementptr inbounds nuw i8, ptr %8, i64 8
  %27 = load i64, ptr %26, align 8, !tbaa !31
  %28 = getelementptr inbounds nuw i8, ptr %0, i64 64
  store i64 %27, ptr %28, align 8, !tbaa !31
  store ptr %18, ptr %8, align 8, !tbaa !32
  store i64 0, ptr %26, align 8, !tbaa !31
  store i8 0, ptr %18, align 8, !tbaa !33
  %29 = getelementptr inbounds nuw i8, ptr %0, i64 88
  invoke void @_ZN5folly9LogStreamC1EPNS_18LogStreamProcessorE(ptr noundef nonnull align 8 dereferenceable(112) %29, ptr noundef nonnull %0)
          to label %30 unwind label %31

30:                                               ; preds = %_ZNSt7__cxx1112basic_stringIcSt11char_traitsIcESaIcEEC2EOS4_.exit
  ret void

31:                                               ; preds = %_ZNSt7__cxx1112basic_stringIcSt11char_traitsIcESaIcEEC2EOS4_.exit
  %32 = landingpad { ptr, i32 }
          catch ptr null
  %33 = extractvalue { ptr, i32 } %32, 0
  tail call void @__clang_call_terminate(ptr %33) #16
  unreachable
}